; Function Attrs: mustprogress nofree nounwind willreturn memory(write, argmem: read, inaccessiblemem: readwrite) uwtable
define noalias noundef ptr @Gia_IsoManStart(ptr noundef %0) local_unnamed_addr #0 {
  %2 = tail call noalias dereferenceable_or_null(128) ptr @calloc(i64 noundef 1, i64 noundef 128) #24
  store ptr %0, ptr %2, align 8, !tbaa !3
  %3 = getelementptr i8, ptr %0, i64 24
  %.val = load i32, ptr %3, align 8, !tbaa !14
  %4 = getelementptr inbounds nuw i8, ptr %2, i64 8
  store i32 %.val, ptr %4, align 8, !tbaa !31
  %5 = getelementptr inbounds nuw i8, ptr %2, i64 12
  store i32 1, ptr %5, align 4, !tbaa !32
  %6 = getelementptr inbounds nuw i8, ptr %2, i64 20
  store i32 %.val, ptr %6, align 4, !tbaa !33
  %7 = sext i32 %.val to i64
  %8 = tail call noalias ptr @calloc(i64 noundef %7, i64 noundef 4) #24
  %9 = getelementptr inbounds nuw i8, ptr %2, i64 24
  store ptr %8, ptr %9, align 8, !tbaa !34
  %10 = tail call noalias ptr @calloc(i64 noundef %7, i64 noundef 4) #24
  %11 = getelementptr inbounds nuw i8, ptr %2, i64 32
  store ptr %10, ptr %11, align 8, !tbaa !35
  %12 = tail call noalias ptr @calloc(i64 noundef %7, i64 noundef 8) #24
  %13 = getelementptr inbounds nuw i8, ptr %2, i64 40
  store ptr %12, ptr %13, align 8, !tbaa !36
  %14 = sdiv i32 %.val, 4
  %15 = tail call noalias dereferenceable_or_null(16) ptr @malloc(i64 noundef 16) #25
  %16 = add nsw i32 %14, -1
  %or.cond.i = icmp ult i32 %16, 15
  %spec.store.select.i = select i1 %or.cond.i, i32 16, i32 %14
  %17 = getelementptr inbounds nuw i8, ptr %15, i64 4
  store i32 0, ptr %17, align 4, !tbaa !37
  store i32 %spec.store.select.i, ptr %15, align 8, !tbaa !38
  %.not.i = icmp eq i32 %spec.store.select.i, 0
  br i1 %.not.i, label %Vec_IntAlloc.exit, label %18

18:                                               ; preds = %1
  %19 = sext i32 %spec.store.select.i to i64
  %20 = shl nsw i64 %19, 2
  %21 = tail call noalias ptr @malloc(i64 noundef %20) #25
  br label %Vec_IntAlloc.exit

Vec_IntAlloc.exit:                                ; preds = %1, %18
  %22 = phi ptr [ %21, %18 ], [ null, %1 ]
  %23 = getelementptr inbounds nuw i8, ptr %15, i64 8
  store ptr %22, ptr %23, align 8, !tbaa !39
  %24 = getelementptr inbounds nuw i8, ptr %2, i64 64
  store ptr %15, ptr %24, align 8, !tbaa !40
  %25 = tail call noalias dereferenceable_or_null(16) ptr @malloc(i64 noundef 16) #25
  %26 = getelementptr inbounds nuw i8, ptr %25, i64 4
  store i32 0, ptr %26, align 4, !tbaa !37
  store i32 %spec.store.select.i, ptr %25, align 8, !tbaa !38
  br i1 %.not.i, label %Vec_IntAlloc.exit21, label %27

27:                                               ; preds = %Vec_IntAlloc.exit
  %28 = sext i32 %spec.store.select.i to i64
  %29 = shl nsw i64 %28, 2
  %30 = tail call noalias ptr @malloc(i64 noundef %29) #25
  br label %Vec_IntAlloc.exit21

Vec_IntAlloc.exit21:                              ; preds = %Vec_IntAlloc.exit, %27
  %31 = phi ptr [ %30, %27 ], [ null, %Vec_IntAlloc.exit ]
  %32 = getelementptr inbounds nuw i8, ptr %25, i64 8
  store ptr %31, ptr %32, align 8, !tbaa !39
  %33 = getelementptr inbounds nuw i8, ptr %2, i64 72
  store ptr %25, ptr %33, align 8, !tbaa !41
  ret ptr %2
}